; Function Attrs: mustprogress nounwind uwtable
define hidden void @_ZN18NotificationThread10initializeEv() local_unnamed_addr #0 align 2 {
  %1 = alloca %class.ExceptionMark, align 8
  call void @_ZN13ExceptionMarkC1Ev(ptr noundef nonnull align 8 dereferenceable(8) %1) #4
  %2 = load ptr, ptr %1, align 8
  %3 = call ptr @_ZN10JavaThread27create_system_thread_objectEPKcPS_(ptr noundef nonnull @.str, ptr noundef %2) #4
  %4 = getelementptr inbounds i8, ptr %2, i64 8
  %5 = load ptr, ptr %4, align 8
  %.not = icmp eq ptr %5, null
  br i1 %.not, label %6, label %8

6:                                                ; preds = %0
  %7 = call noundef ptr @_Z12AllocateHeapm8MEMFLAGSN17AllocFailStrategy13AllocFailEnumE(i64 noundef 1800, i8 noundef zeroext 2, i32 noundef 0) #4
  call void @_ZN10JavaThreadC2EPFvPS_S0_Em8MEMFLAGS(ptr noundef nonnull align 8 dereferenceable(1800) %7, ptr noundef nonnull @_ZN18NotificationThread25notification_thread_entryEP10JavaThreadS1_, i64 noundef 0, i8 noundef zeroext 2) #4
  store ptr getelementptr inbounds inrange(-16, 224) (i8, ptr @_ZTV18NotificationThread, i64 16), ptr %7, align 8
  call void @_ZN10JavaThread27vm_exit_on_osthread_failureEPS_(ptr noundef nonnull %7) #4
  call void @_ZN10JavaThread21start_internal_daemonEPS_S0_6Handle14ThreadPriority(ptr noundef nonnull %2, ptr noundef nonnull %7, ptr %3, i32 noundef 9) #4
  br label %8

8:                                                ; preds = %0, %6
  call void @_ZN13ExceptionMarkD1Ev(ptr noundef nonnull align 8 dereferenceable(8) %1) #4
  ret void
}